target datalayout = "e-m:e-p270:32:32-p271:32:32-p272:64:64-i64:64-i128:128-f80:128-n8:16:32:64-S128"
target triple = "x86_64-pc-linux-gnu"

%struct.gmx_rmpbc = type { ptr, ptr, i32, i32, i32, ptr }

@stdout = external global ptr, align 8

; Function Attrs: mustprogress nounwind uwtable
define internal void @_ZL9copy_rvecPKfPf(ptr noundef %0, ptr noundef %1) #3 {
  %3 = alloca ptr, align 8
  %4 = alloca ptr, align 8
  store ptr %0, ptr %3, align 8
  store ptr %1, ptr %4, align 8
  %5 = load ptr, ptr %3, align 8
  %6 = getelementptr inbounds float, ptr %5, i64 0
  %7 = load float, ptr %6, align 4
  %8 = load ptr, ptr %4, align 8
  %9 = getelementptr inbounds float, ptr %8, i64 0
  store float %7, ptr %9, align 4
  %10 = load ptr, ptr %3, align 8
  %11 = getelementptr inbounds float, ptr %10, i64 1
  %12 = load float, ptr %11, align 4
  %13 = load ptr, ptr %4, align 8
  %14 = getelementptr inbounds float, ptr %13, i64 1
  store float %12, ptr %14, align 4
  %15 = load ptr, ptr %3, align 8
  %16 = getelementptr inbounds float, ptr %15, i64 2
  %17 = load float, ptr %16, align 4
  %18 = load ptr, ptr %4, align 8
  %19 = getelementptr inbounds float, ptr %18, i64 2
  store float %17, ptr %19, align 4
  ret void
}

; Function Attrs: mustprogress uwtable
define internal noundef i32 @_ZL14gmx_rmpbc_ePBCP9gmx_rmpbcPA3_Kf(ptr noundef %0, ptr noundef %1) #0 {
  %3 = alloca i32, align 4
  %4 = alloca ptr, align 8
  %5 = alloca ptr, align 8
  store ptr %0, ptr %4, align 8
  store ptr %1, ptr %5, align 8
  %6 = load ptr, ptr %4, align 8
  %7 = icmp ne ptr null, %6
  br i1 %7, label %8, label %17

8:                                                ; preds = %2
  %9 = load ptr, ptr %4, align 8
  %10 = getelementptr inbounds %struct.gmx_rmpbc, ptr %9, i32 0, i32 3
  %11 = load i32, ptr %10, align 4
  %12 = icmp ne i32 %11, 4
  br i1 %12, label %13, label %17

13:                                               ; preds = %8
  %14 = load ptr, ptr %4, align 8
  %15 = getelementptr inbounds %struct.gmx_rmpbc, ptr %14, i32 0, i32 3
  %16 = load i32, ptr %15, align 4
  store i32 %16, ptr %3, align 4
  br label %20

17:                                               ; preds = %8, %2
  %18 = load ptr, ptr %5, align 8
  %19 = call noundef i32 @_Z12guessPbcTypePA3_Kf(ptr noundef %18)
  store i32 %19, ptr %3, align 4
  br label %20

20:                                               ; preds = %17, %13
  %21 = load i32, ptr %3, align 4
  ret i32 %21
}

; Function Attrs: mustprogress uwtable
define void @_Z14gmx_rmpbc_copyP9gmx_rmpbciPA3_KfPA3_fS5_(ptr noundef %0, i32 noundef %1, ptr noundef %2, ptr noundef %3, ptr noundef %4) #0 {
  %6 = alloca ptr, align 8
  %7 = alloca i32, align 4
  %8 = alloca ptr, align 8
  %9 = alloca ptr, align 8
  %10 = alloca ptr, align 8
  %11 = alloca i32, align 4
  %12 = alloca ptr, align 8
  %13 = alloca i32, align 4
  store ptr %0, ptr %6, align 8
  store i32 %1, ptr %7, align 4
  store ptr %2, ptr %8, align 8
  store ptr %3, ptr %9, align 8
  store ptr %4, ptr %10, align 8
  %14 = load ptr, ptr %6, align 8
  %15 = load ptr, ptr %8, align 8
  %16 = call noundef i32 @_ZL14gmx_rmpbc_ePBCP9gmx_rmpbcPA3_Kf(ptr noundef %14, ptr noundef %15)
  store i32 %16, ptr %11, align 4
  %17 = load ptr, ptr %6, align 8
  %18 = load i32, ptr %11, align 4
  %19 = load i32, ptr %7, align 4
  %20 = call noundef ptr @_ZL19gmx_rmpbc_get_graphP9gmx_rmpbc7PbcTypei(ptr noundef %17, i32 noundef %18, i32 noundef %19)
  store ptr %20, ptr %12, align 8
  %21 = load ptr, ptr %12, align 8
  %22 = icmp ne ptr %21, null
  br i1 %22, label %23, label %33

23:                                               ; preds = %5
  %24 = load ptr, ptr @stdout, align 8
  %25 = load ptr, ptr %12, align 8
  %26 = load i32, ptr %11, align 4
  %27 = load ptr, ptr %8, align 8
  %28 = load ptr, ptr %9, align 8
  call void @_Z9mk_mshiftP8_IO_FILEP7t_graph7PbcTypePA3_KfS6_(ptr noundef %24, ptr noundef %25, i32 noundef %26, ptr noundef %27, ptr noundef %28)
  %29 = load ptr, ptr %12, align 8
  %30 = load ptr, ptr %8, align 8
  %31 = load ptr, ptr %9, align 8
  %32 = load ptr, ptr %10, align 8
  call void @_Z7shift_xPK7t_graphPA3_KfS4_PA3_f(ptr noundef %29, ptr noundef %30, ptr noundef %31, ptr noundef %32)
  br label %53

33:                                               ; preds = %5
  store i32 0, ptr %13, align 4
  br label %34

34:                                               ; preds = %49, %33
  %35 = load i32, ptr %13, align 4
  %36 = load i32, ptr %7, align 4
  %37 = icmp slt i32 %35, %36
  br i1 %37, label %38, label %52

38:                                               ; preds = %34
  %39 = load ptr, ptr %9, align 8
  %40 = load i32, ptr %13, align 4
  %41 = sext i32 %40 to i64
  %42 = getelementptr inbounds [3 x float], ptr %39, i64 %41
  %43 = getelementptr inbounds [3 x float], ptr %42, i64 0, i64 0
  %44 = load ptr, ptr %10, align 8
  %45 = load i32, ptr %13, align 4
  %46 = sext i32 %45 to i64
  %47 = getelementptr inbounds [3 x float], ptr %44, i64 %46
  %48 = getelementptr inbounds [3 x float], ptr %47, i64 0, i64 0
  call void @_ZL9copy_rvecPKfPf(ptr noundef %43, ptr noundef %48)
  br label %49

49:                                               ; preds = %38
  %50 = load i32, ptr %13, align 4
  %51 = add nsw i32 %50, 1
  store i32 %51, ptr %13, align 4
  br label %34, !llvm.loop !8

52:                                               ; preds = %34
  br label %53

53:                                               ; preds = %52, %23
  ret void
}