; Function Attrs: mustprogress uwtable
define void @_Z14gmx_rmpbc_copyP9gmx_rmpbciPA3_KfPA3_fS5_(ptr noundef %0, i32 noundef %1, ptr noundef %2, ptr noundef %3, ptr noundef %4) local_unnamed_addr #0 {
  %.not.i = icmp eq ptr %0, null
  br i1 %.not.i, label %9, label %6

6:                                                ; preds = %5
  %7 = getelementptr inbounds i8, ptr %0, i64 20
  %8 = load i32, ptr %7, align 4
  %.not6.i = icmp eq i32 %8, 4
  br i1 %.not6.i, label %9, label %_ZL14gmx_rmpbc_ePBCP9gmx_rmpbcPA3_Kf.exit

9:                                                ; preds = %6, %5
  %10 = tail call noundef i32 @_Z12guessPbcTypePA3_Kf(ptr noundef %2)
  br label %_ZL14gmx_rmpbc_ePBCP9gmx_rmpbcPA3_Kf.exit

_ZL14gmx_rmpbc_ePBCP9gmx_rmpbcPA3_Kf.exit:        ; preds = %6, %9
  %.0.i = phi i32 [ %10, %9 ], [ %8, %6 ]
  %11 = tail call fastcc noundef ptr @_ZL19gmx_rmpbc_get_graphP9gmx_rmpbc7PbcTypei(ptr noundef %0, i32 noundef %.0.i, i32 noundef %1)
  %.not = icmp eq ptr %11, null
  br i1 %.not, label %.preheader, label %13

.preheader:                                       ; preds = %_ZL14gmx_rmpbc_ePBCP9gmx_rmpbcPA3_Kf.exit
  %12 = icmp sgt i32 %1, 0
  br i1 %12, label %.lr.ph.preheader, label %.loopexit

.lr.ph.preheader:                                 ; preds = %.preheader
  %wide.trip.count = zext nneg i32 %1 to i64
  br label %.lr.ph

13:                                               ; preds = %_ZL14gmx_rmpbc_ePBCP9gmx_rmpbcPA3_Kf.exit
  %14 = load ptr, ptr @stdout, align 8
  tail call void @_Z9mk_mshiftP8_IO_FILEP7t_graph7PbcTypePA3_KfS6_(ptr noundef %14, ptr noundef nonnull %11, i32 noundef %.0.i, ptr noundef %2, ptr noundef %3)
  tail call void @_Z7shift_xPK7t_graphPA3_KfS4_PA3_f(ptr noundef nonnull %11, ptr noundef %2, ptr noundef %3, ptr noundef %4)
  br label %.loopexit

.lr.ph:                                           ; preds = %.lr.ph.preheader, %.lr.ph
  %indvars.iv = phi i64 [ 0, %.lr.ph.preheader ], [ %indvars.iv.next, %.lr.ph ]
  %15 = getelementptr inbounds [3 x float], ptr %3, i64 %indvars.iv
  %16 = getelementptr inbounds [3 x float], ptr %4, i64 %indvars.iv
  %17 = load float, ptr %15, align 4
  store float %17, ptr %16, align 4
  %18 = getelementptr inbounds i8, ptr %15, i64 4
  %19 = load float, ptr %18, align 4
  %20 = getelementptr inbounds i8, ptr %16, i64 4
  store float %19, ptr %20, align 4
  %21 = getelementptr inbounds i8, ptr %15, i64 8
  %22 = load float, ptr %21, align 4
  %23 = getelementptr inbounds i8, ptr %16, i64 8
  store float %22, ptr %23, align 4
  %indvars.iv.next = add nuw nsw i64 %indvars.iv, 1
  %exitcond.not = icmp eq i64 %indvars.iv.next, %wide.trip.count
  br i1 %exitcond.not, label %.loopexit, label %.lr.ph, !llvm.loop !8

.loopexit:                                        ; preds = %.lr.ph, %.preheader, %13
  ret void
}